; Function Attrs: mustprogress nounwind uwtable
define void @_ZN5arrow2io20TransformInputStreamD2Ev(ptr nocapture noundef nonnull align 8 dereferenceable(16) %this, ptr nocapture noundef readonly %vtt) unnamed_addr #4 align 2 personality ptr @__gxx_personality_v0 {
entry:
  %0 = load ptr, ptr %vtt, align 8
  store ptr %0, ptr %this, align 8
  %1 = getelementptr inbounds i8, ptr %vtt, i64 32
  %2 = load ptr, ptr %1, align 8
  %vbase.offset.ptr = getelementptr i8, ptr %0, i64 -56
  %vbase.offset = load i64, ptr %vbase.offset.ptr, align 8
  %add.ptr = getelementptr inbounds i8, ptr %this, i64 %vbase.offset
  store ptr %2, ptr %add.ptr, align 8
  %3 = getelementptr inbounds i8, ptr %vtt, i64 40
  %4 = load ptr, ptr %3, align 8
  %vtable3 = load ptr, ptr %this, align 8
  %vbase.offset.ptr4 = getelementptr i8, ptr %vtable3, i64 -64
  %vbase.offset5 = load i64, ptr %vbase.offset.ptr4, align 8
  %add.ptr6 = getelementptr inbounds i8, ptr %this, i64 %vbase.offset5
  store ptr %4, ptr %add.ptr6, align 8
  %impl_ = getelementptr inbounds i8, ptr %this, i64 8
  %5 = load ptr, ptr %impl_, align 8
  %cmp.not.i = icmp eq ptr %5, null
  br i1 %cmp.not.i, label %_ZNSt10unique_ptrIN5arrow2io20TransformInputStream4ImplESt14default_deleteIS3_EED2Ev.exit, label %_ZNKSt14default_deleteIN5arrow2io20TransformInputStream4ImplEEclEPS3_.exit.i

_ZNKSt14default_deleteIN5arrow2io20TransformInputStream4ImplEEclEPS3_.exit.i: ; preds = %entry
  tail call void @_ZN5arrow2io20TransformInputStream4ImplD2Ev(ptr noundef nonnull align 8 dereferenceable(73) %5) #19
  tail call void @_ZdlPv(ptr noundef nonnull %5) #20
  br label %_ZNSt10unique_ptrIN5arrow2io20TransformInputStream4ImplESt14default_deleteIS3_EED2Ev.exit

_ZNSt10unique_ptrIN5arrow2io20TransformInputStream4ImplESt14default_deleteIS3_EED2Ev.exit: ; preds = %entry, %_ZNKSt14default_deleteIN5arrow2io20TransformInputStream4ImplEEclEPS3_.exit.i
  store ptr null, ptr %impl_, align 8
  ret void
}